target datalayout = "e-m:e-p270:32:32-p271:32:32-p272:64:64-i64:64-i128:128-f80:128-n8:16:32:64-S128"
target triple = "x86_64-pc-linux-gnu"

%struct.gz_state = type { i32, i32, ptr, i64, i32, i32, ptr, ptr, ptr, i32, i32, i64, i64, i32, i32, i32, i32, i64, i32, i32, ptr, %struct.z_stream_s }
%struct.z_stream_s = type { ptr, i32, i64, ptr, i32, i64, ptr, ptr, ptr, ptr, ptr, i32, i64, i64 }

; Function Attrs: nounwind uwtable
define i32 @gzdirect(ptr noundef %0) #0 {
  %2 = alloca i32, align 4
  %3 = alloca ptr, align 8
  %4 = alloca ptr, align 8
  %5 = alloca i32, align 4
  store ptr %0, ptr %3, align 8, !tbaa !3
  call void @llvm.lifetime.start.p0(i64 8, ptr %4) #8
  %6 = load ptr, ptr %3, align 8, !tbaa !3
  %7 = icmp eq ptr %6, null
  br i1 %7, label %8, label %9

8:                                                ; preds = %1
  store i32 0, ptr %2, align 4
  store i32 1, ptr %5, align 4
  br label %33

9:                                                ; preds = %1
  %10 = load ptr, ptr %3, align 8, !tbaa !3
  store ptr %10, ptr %4, align 8, !tbaa !3
  %11 = load ptr, ptr %4, align 8, !tbaa !3
  %12 = getelementptr inbounds nuw %struct.gz_state, ptr %11, i32 0, i32 0
  %13 = load i32, ptr %12, align 8, !tbaa !11
  %14 = icmp ne i32 %13, 7247
  br i1 %14, label %15, label %16

15:                                               ; preds = %9
  store i32 0, ptr %2, align 4
  store i32 1, ptr %5, align 4
  br label %33

16:                                               ; preds = %9
  %17 = load ptr, ptr %4, align 8, !tbaa !3
  %18 = getelementptr inbounds nuw %struct.gz_state, ptr %17, i32 0, i32 13
  %19 = load i32, ptr %18, align 8, !tbaa !24
  %20 = icmp eq i32 %19, 0
  br i1 %20, label %21, label %29

21:                                               ; preds = %16
  %22 = load ptr, ptr %4, align 8, !tbaa !3
  %23 = getelementptr inbounds nuw %struct.gz_state, ptr %22, i32 0, i32 9
  %24 = load i32, ptr %23, align 8, !tbaa !20
  %25 = icmp eq i32 %24, 0
  br i1 %25, label %26, label %29

26:                                               ; preds = %21
  %27 = load ptr, ptr %4, align 8, !tbaa !3
  %28 = call i32 @gz_head(ptr noundef %27)
  br label %29

29:                                               ; preds = %26, %21, %16
  %30 = load ptr, ptr %4, align 8, !tbaa !3
  %31 = getelementptr inbounds nuw %struct.gz_state, ptr %30, i32 0, i32 14
  %32 = load i32, ptr %31, align 4, !tbaa !47
  store i32 %32, ptr %2, align 4
  store i32 1, ptr %5, align 4
  br label %33

33:                                               ; preds = %29, %15, %8
  call void @llvm.lifetime.end.p0(i64 8, ptr %4) #8
  %34 = load i32, ptr %2, align 4
  ret i32 %34
}