; Function Attrs: nounwind uwtable
define i32 @gzdirect(ptr noundef %0) local_unnamed_addr #0 {
  %2 = icmp eq ptr %0, null
  br i1 %2, label %18, label %3

3:                                                ; preds = %1
  %4 = load i32, ptr %0, align 8, !tbaa !3
  %.not = icmp eq i32 %4, 7247
  br i1 %.not, label %5, label %18

5:                                                ; preds = %3
  %6 = getelementptr inbounds nuw i8, ptr %0, i64 80
  %7 = load i32, ptr %6, align 8, !tbaa !24
  %8 = icmp eq i32 %7, 0
  br i1 %8, label %9, label %15

9:                                                ; preds = %5
  %10 = getelementptr inbounds nuw i8, ptr %0, i64 56
  %11 = load i32, ptr %10, align 8, !tbaa !16
  %12 = icmp eq i32 %11, 0
  br i1 %12, label %13, label %15

13:                                               ; preds = %9
  %14 = tail call fastcc i32 @gz_head(ptr noundef %0)
  br label %15

15:                                               ; preds = %13, %9, %5
  %16 = getelementptr inbounds nuw i8, ptr %0, i64 84
  %17 = load i32, ptr %16, align 4, !tbaa !43
  br label %18

18:                                               ; preds = %3, %1, %15
  %.0 = phi i32 [ %17, %15 ], [ 0, %1 ], [ 0, %3 ]
  ret i32 %.0
}